target datalayout = "e-m:e-p270:32:32-p271:32:32-p272:64:64-i64:64-i128:128-f80:128-n8:16:32:64-S128"
target triple = "x86_64-pc-linux-gnu"

%struct.expert_field = type { i32, i32 }
%struct._packet_info = type { ptr, ptr, i32, i32, %struct.nstime_t, %struct.nstime_t, %struct.nstime_t, i8, ptr, ptr, ptr, ptr, %struct._address, %struct._address, %struct._address, %struct._address, %struct._address, %struct._address, i32, ptr, i8, [3 x i8], %struct.anon, i32, i32, i32, i32, ptr, i8, ptr, ptr, i16, i16, i32, i32, i16, i32, i32, ptr, ptr, ptr, i8, i8, i16, i16, i16, i32, i16, i16, ptr, ptr, ptr, ptr, ptr, i32, i32 }
%struct.nstime_t = type { i64, i32 }
%struct._address = type { i32, i32, ptr, ptr }
%struct.anon = type { i8, [3 x i8] }

@ei_nas_eps_extraneous_data = internal global %struct.expert_field zeroinitializer, align 4
@ei_nas_eps_missing_mandatory_elemen = internal global %struct.expert_field zeroinitializer, align 4
@.str.952 = private unnamed_addr constant [1 x i8] zeroinitializer, align 1
@.str.959 = private unnamed_addr constant [62 x i8] c"Missing Mandatory element %s%s, rest of dissection is suspect\00", align 1
@.str.1024 = private unnamed_addr constant [7 x i8] c" - CLI\00", align 1

; Function Attrs: null_pointer_is_valid sspstrong uwtable
define internal void @nas_emm_cs_serv_not(ptr noundef %0, ptr noundef %1, ptr noundef %2, i32 noundef %3, i32 noundef %4) #1 {
  %6 = alloca ptr, align 8
  %7 = alloca ptr, align 8
  %8 = alloca ptr, align 8
  %9 = alloca i32, align 4
  %10 = alloca i32, align 4
  %11 = alloca i32, align 4
  %12 = alloca i32, align 4
  %13 = alloca i32, align 4
  %14 = alloca i32, align 4
  store ptr %0, ptr %6, align 8
  store ptr %1, ptr %7, align 8
  store ptr %2, ptr %8, align 8
  store i32 %3, ptr %9, align 4
  store i32 %4, ptr %10, align 4
  call void @llvm.lifetime.start.p0(i64 4, ptr %11) #10
  call void @llvm.lifetime.start.p0(i64 4, ptr %12) #10
  call void @llvm.lifetime.start.p0(i64 4, ptr %13) #10
  %15 = load i32, ptr %9, align 4
  store i32 %15, ptr %11, align 4
  %16 = load i32, ptr %10, align 4
  store i32 %16, ptr %13, align 4
  %17 = load ptr, ptr %8, align 8
  %18 = getelementptr inbounds nuw %struct._packet_info, ptr %17, i32 0, i32 46
  store i32 1, ptr %18, align 8
  %19 = load i32, ptr %13, align 4
  %20 = icmp sgt i32 %19, 0
  br i1 %20, label %21, label %36

21:                                               ; preds = %5
  %22 = load ptr, ptr %6, align 8
  %23 = load ptr, ptr %7, align 8
  %24 = load ptr, ptr %8, align 8
  %25 = load i32, ptr %11, align 4
  %26 = call zeroext i16 @elem_v(ptr noundef %22, ptr noundef %23, ptr noundef %24, i32 noundef 10, i32 noundef 32, i32 noundef %25, ptr noundef null)
  %27 = zext i16 %26 to i32
  store i32 %27, ptr %12, align 4
  %28 = icmp ugt i32 %27, 0
  br i1 %28, label %29, label %36

29:                                               ; preds = %21
  %30 = load i32, ptr %12, align 4
  %31 = load i32, ptr %11, align 4
  %32 = add i32 %31, %30
  store i32 %32, ptr %11, align 4
  %33 = load i32, ptr %12, align 4
  %34 = load i32, ptr %13, align 4
  %35 = sub i32 %34, %33
  store i32 %35, ptr %13, align 4
  br label %43

36:                                               ; preds = %21, %5
  %37 = load ptr, ptr %7, align 8
  %38 = load ptr, ptr %8, align 8
  %39 = load ptr, ptr %6, align 8
  %40 = load i32, ptr %11, align 4
  %41 = call ptr @get_gsm_a_msg_string(i32 noundef 10, i32 noundef 32)
  %42 = call ptr (ptr, ptr, ptr, ptr, i32, i32, ptr, ...) @proto_tree_add_expert_format(ptr noundef %37, ptr noundef %38, ptr noundef @ei_nas_eps_missing_mandatory_elemen, ptr noundef %39, i32 noundef %40, i32 noundef 0, ptr noundef @.str.959, ptr noundef %41, ptr noundef @.str.952)
  br label %43

43:                                               ; preds = %36, %29
  %44 = load i32, ptr %13, align 4
  %45 = icmp sle i32 %44, 0
  br i1 %45, label %46, label %47

46:                                               ; preds = %43
  store i32 1, ptr %14, align 4
  br label %137

47:                                               ; preds = %43
  %48 = load ptr, ptr %6, align 8
  %49 = load ptr, ptr %7, align 8
  %50 = load ptr, ptr %8, align 8
  %51 = load i32, ptr %11, align 4
  %52 = load i32, ptr %13, align 4
  %53 = call zeroext i16 @elem_tlv(ptr noundef %48, ptr noundef %49, ptr noundef %50, i8 noundef zeroext 96, i32 noundef 1, i32 noundef 25, i32 noundef %51, i32 noundef %52, ptr noundef @.str.1024)
  %54 = zext i16 %53 to i32
  store i32 %54, ptr %12, align 4
  %55 = icmp ugt i32 %54, 0
  br i1 %55, label %56, label %63

56:                                               ; preds = %47
  %57 = load i32, ptr %12, align 4
  %58 = load i32, ptr %11, align 4
  %59 = add i32 %58, %57
  store i32 %59, ptr %11, align 4
  %60 = load i32, ptr %12, align 4
  %61 = load i32, ptr %13, align 4
  %62 = sub i32 %61, %60
  store i32 %62, ptr %13, align 4
  br label %63

63:                                               ; preds = %56, %47
  %64 = load i32, ptr %13, align 4
  %65 = icmp sle i32 %64, 0
  br i1 %65, label %66, label %67

66:                                               ; preds = %63
  store i32 1, ptr %14, align 4
  br label %137

67:                                               ; preds = %63
  %68 = load ptr, ptr %6, align 8
  %69 = load ptr, ptr %7, align 8
  %70 = load ptr, ptr %8, align 8
  %71 = load i32, ptr %11, align 4
  %72 = call zeroext i16 @elem_tv(ptr noundef %68, ptr noundef %69, ptr noundef %70, i8 noundef zeroext 97, i32 noundef 10, i32 noundef 48, i32 noundef %71, ptr noundef null)
  %73 = zext i16 %72 to i32
  store i32 %73, ptr %12, align 4
  %74 = icmp ugt i32 %73, 0
  br i1 %74, label %75, label %82

75:                                               ; preds = %67
  %76 = load i32, ptr %12, align 4
  %77 = load i32, ptr %11, align 4
  %78 = add i32 %77, %76
  store i32 %78, ptr %11, align 4
  %79 = load i32, ptr %12, align 4
  %80 = load i32, ptr %13, align 4
  %81 = sub i32 %80, %79
  store i32 %81, ptr %13, align 4
  br label %82

82:                                               ; preds = %75, %67
  %83 = load i32, ptr %13, align 4
  %84 = icmp sle i32 %83, 0
  br i1 %84, label %85, label %86

85:                                               ; preds = %82
  store i32 1, ptr %14, align 4
  br label %137

86:                                               ; preds = %82
  %87 = load ptr, ptr %6, align 8
  %88 = load ptr, ptr %7, align 8
  %89 = load ptr, ptr %8, align 8
  %90 = load i32, ptr %11, align 4
  %91 = call zeroext i16 @elem_tv(ptr noundef %87, ptr noundef %88, ptr noundef %89, i8 noundef zeroext 98, i32 noundef 10, i32 noundef 49, i32 noundef %90, ptr noundef null)
  %92 = zext i16 %91 to i32
  store i32 %92, ptr %12, align 4
  %93 = icmp ugt i32 %92, 0
  br i1 %93, label %94, label %101

94:                                               ; preds = %86
  %95 = load i32, ptr %12, align 4
  %96 = load i32, ptr %11, align 4
  %97 = add i32 %96, %95
  store i32 %97, ptr %11, align 4
  %98 = load i32, ptr %12, align 4
  %99 = load i32, ptr %13, align 4
  %100 = sub i32 %99, %98
  store i32 %100, ptr %13, align 4
  br label %101

101:                                              ; preds = %94, %86
  %102 = load i32, ptr %13, align 4
  %103 = icmp sle i32 %102, 0
  br i1 %103, label %104, label %105

104:                                              ; preds = %101
  store i32 1, ptr %14, align 4
  br label %137

105:                                              ; preds = %101
  %106 = load ptr, ptr %6, align 8
  %107 = load ptr, ptr %7, align 8
  %108 = load ptr, ptr %8, align 8
  %109 = load i32, ptr %11, align 4
  %110 = load i32, ptr %13, align 4
  %111 = call zeroext i16 @elem_tlv(ptr noundef %106, ptr noundef %107, ptr noundef %108, i8 noundef zeroext 99, i32 noundef 10, i32 noundef 50, i32 noundef %109, i32 noundef %110, ptr noundef null)
  %112 = zext i16 %111 to i32
  store i32 %112, ptr %12, align 4
  %113 = icmp ugt i32 %112, 0
  br i1 %113, label %114, label %121

114:                                              ; preds = %105
  %115 = load i32, ptr %12, align 4
  %116 = load i32, ptr %11, align 4
  %117 = add i32 %116, %115
  store i32 %117, ptr %11, align 4
  %118 = load i32, ptr %12, align 4
  %119 = load i32, ptr %13, align 4
  %120 = sub i32 %119, %118
  store i32 %120, ptr %13, align 4
  br label %121

121:                                              ; preds = %114, %105
  %122 = load i32, ptr %13, align 4
  %123 = icmp ugt i32 %122, 0
  br i1 %123, label %124, label %136

124:                                              ; preds = %121
  %125 = load ptr, ptr %7, align 8
  %126 = load ptr, ptr %8, align 8
  %127 = load ptr, ptr %6, align 8
  %128 = load i32, ptr %11, align 4
  %129 = load i32, ptr %13, align 4
  %130 = sub i32 %129, 0
  %131 = call ptr @proto_tree_add_expert(ptr noundef %125, ptr noundef %126, ptr noundef @ei_nas_eps_extraneous_data, ptr noundef %127, i32 noundef %128, i32 noundef %130)
  %132 = load i32, ptr %13, align 4
  %133 = sub i32 %132, 0
  %134 = load i32, ptr %11, align 4
  %135 = add i32 %134, %133
  store i32 %135, ptr %11, align 4
  br label %136

136:                                              ; preds = %124, %121
  store i32 0, ptr %14, align 4
  br label %137

137:                                              ; preds = %136, %104, %85, %66, %46
  call void @llvm.lifetime.end.p0(i64 4, ptr %13) #10
  call void @llvm.lifetime.end.p0(i64 4, ptr %12) #10
  call void @llvm.lifetime.end.p0(i64 4, ptr %11) #10
  %138 = load i32, ptr %14, align 4
  switch i32 %138, label %140 [
    i32 0, label %139
    i32 1, label %139
  ]

139:                                              ; preds = %137, %137
  ret void

140:                                              ; preds = %137
  unreachable
}